target datalayout = "e-m:e-p270:32:32-p271:32:32-p272:64:64-i64:64-i128:128-f80:128-n8:16:32:64-S128"
target triple = "x86_64-pc-linux-gnu"

%struct.AVCodecContext = type { ptr, i32, i32, ptr, i32, i32, ptr, ptr, ptr, i64, i32, i32, ptr, i32, %struct.AVRational, %struct.AVRational, %struct.AVRational, i32, i32, i32, i32, i32, %struct.AVRational, i32, i32, i32, i32, i32, i32, i32, i32, i32, i32, i32, ptr, ptr, i32, float, float, float, float, float, float, float, float, float, i32, i32, i32, i32, i32, i32, i32, i32, i32, i32, i32, i32, ptr, ptr, ptr, i32, i32, i32, i32, i32, i32, i32, i32, i32, i32, %struct.AVChannelLayout, i32, i32, i32, i32, i32, i32, i32, i32, ptr, i32, i32, i32, float, float, i32, i32, i32, i32, i32, ptr, i64, i64, float, float, i32, i32, ptr, ptr, i32, i32, i32, i32, i32, ptr, ptr, ptr, ptr, i32, i32, [8 x i64], i32, i32, i32, i32, i32, i32, i32, ptr, ptr, i32, i32, i32, i32, i32, i32, i32, i32, i32, i32, ptr, ptr, i32, i32, ptr, ptr, ptr, ptr, i32, i32, i64, i32, i32, i64, ptr, i64, ptr, i32, ptr, i32 }
%struct.AVRational = type { i32, i32 }
%struct.AVChannelLayout = type { i32, i32, %union.anon.0, ptr }
%union.anon.0 = type { i64 }
%struct.DNXHDContext = type { ptr, ptr, %struct.BlockDSPContext, ptr, i32, i64, i32, i32, i32, i32, i32, [512 x i32], i32, i32, %struct.VLC, %struct.VLC, %struct.VLC, %struct.IDCTDSPContext, [64 x i8], ptr, i32, i32, i32, i32, i32, i32, ptr }
%struct.BlockDSPContext = type { ptr, ptr, [2 x ptr] }
%struct.VLC = type { i32, ptr, i32, i32 }
%struct.IDCTDSPContext = type { ptr, ptr, ptr, ptr, ptr, ptr, [64 x i8], i32, i32 }

; Function Attrs: cold nounwind optsize uwtable
define internal i32 @dnxhd_decode_init(ptr noundef %0) #0 {
  %2 = alloca i32, align 4
  %3 = alloca ptr, align 8
  %4 = alloca ptr, align 8
  %5 = alloca i32, align 4
  store ptr %0, ptr %3, align 8, !tbaa !4
  call void @llvm.lifetime.start.p0(i64 8, ptr %4) #7
  %6 = load ptr, ptr %3, align 8, !tbaa !4
  %7 = getelementptr inbounds nuw %struct.AVCodecContext, ptr %6, i32 0, i32 6
  %8 = load ptr, ptr %7, align 8, !tbaa !9
  store ptr %8, ptr %4, align 8, !tbaa !29
  %9 = load ptr, ptr %3, align 8, !tbaa !4
  %10 = load ptr, ptr %4, align 8, !tbaa !29
  %11 = getelementptr inbounds nuw %struct.DNXHDContext, ptr %10, i32 0, i32 0
  store ptr %9, ptr %11, align 8, !tbaa !31
  %12 = load ptr, ptr %4, align 8, !tbaa !29
  %13 = getelementptr inbounds nuw %struct.DNXHDContext, ptr %12, i32 0, i32 5
  store i64 -1, ptr %13, align 8, !tbaa !39
  %14 = load ptr, ptr %3, align 8, !tbaa !4
  %15 = getelementptr inbounds nuw %struct.AVCodecContext, ptr %14, i32 0, i32 27
  %16 = load i32, ptr %15, align 8, !tbaa !40
  %17 = icmp eq i32 %16, 2
  br i1 %17, label %18, label %21

18:                                               ; preds = %1
  %19 = load ptr, ptr %3, align 8, !tbaa !4
  %20 = getelementptr inbounds nuw %struct.AVCodecContext, ptr %19, i32 0, i32 27
  store i32 1, ptr %20, align 8, !tbaa !40
  br label %21

21:                                               ; preds = %18, %1
  %22 = load ptr, ptr %3, align 8, !tbaa !4
  %23 = getelementptr inbounds nuw %struct.AVCodecContext, ptr %22, i32 0, i32 18
  %24 = load i32, ptr %23, align 8, !tbaa !41
  %25 = add nsw i32 %24, 16
  %26 = sub nsw i32 %25, 1
  %27 = and i32 %26, -16
  %28 = load ptr, ptr %3, align 8, !tbaa !4
  %29 = getelementptr inbounds nuw %struct.AVCodecContext, ptr %28, i32 0, i32 20
  store i32 %27, ptr %29, align 8, !tbaa !42
  %30 = load ptr, ptr %3, align 8, !tbaa !4
  %31 = getelementptr inbounds nuw %struct.AVCodecContext, ptr %30, i32 0, i32 19
  %32 = load i32, ptr %31, align 4, !tbaa !43
  %33 = add nsw i32 %32, 16
  %34 = sub nsw i32 %33, 1
  %35 = and i32 %34, -16
  %36 = load ptr, ptr %3, align 8, !tbaa !4
  %37 = getelementptr inbounds nuw %struct.AVCodecContext, ptr %36, i32 0, i32 21
  store i32 %35, ptr %37, align 4, !tbaa !44
  %38 = load ptr, ptr %3, align 8, !tbaa !4
  %39 = getelementptr inbounds nuw %struct.AVCodecContext, ptr %38, i32 0, i32 116
  %40 = load i32, ptr %39, align 8, !tbaa !45
  %41 = sext i32 %40 to i64
  %42 = call noalias ptr @av_calloc(i64 noundef %41, i64 noundef 2112)
  %43 = load ptr, ptr %4, align 8, !tbaa !29
  %44 = getelementptr inbounds nuw %struct.DNXHDContext, ptr %43, i32 0, i32 1
  store ptr %42, ptr %44, align 8, !tbaa !46
  %45 = load ptr, ptr %4, align 8, !tbaa !29
  %46 = getelementptr inbounds nuw %struct.DNXHDContext, ptr %45, i32 0, i32 1
  %47 = load ptr, ptr %46, align 8, !tbaa !46
  %48 = icmp ne ptr %47, null
  br i1 %48, label %50, label %49

49:                                               ; preds = %21
  store i32 -12, ptr %2, align 4
  store i32 1, ptr %5, align 4
  br label %51

50:                                               ; preds = %21
  store i32 0, ptr %2, align 4
  store i32 1, ptr %5, align 4
  br label %51

51:                                               ; preds = %50, %49
  call void @llvm.lifetime.end.p0(i64 8, ptr %4) #7
  %52 = load i32, ptr %2, align 4
  ret i32 %52
}