; Function Attrs: cold nounwind optsize uwtable
define internal range(i32 -12, 1) i32 @dnxhd_decode_init(ptr noundef %0) #0 {
  %2 = getelementptr inbounds nuw i8, ptr %0, i64 32
  %3 = load ptr, ptr %2, align 8, !tbaa !4
  store ptr %0, ptr %3, align 8, !tbaa !27
  %4 = getelementptr inbounds nuw i8, ptr %3, i64 64
  store i64 -1, ptr %4, align 8, !tbaa !36
  %5 = getelementptr inbounds nuw i8, ptr %0, i64 152
  %6 = load i32, ptr %5, align 8, !tbaa !37
  %7 = icmp eq i32 %6, 2
  br i1 %7, label %8, label %9

8:                                                ; preds = %1
  store i32 1, ptr %5, align 8, !tbaa !37
  br label %9

9:                                                ; preds = %8, %1
  %10 = getelementptr inbounds nuw i8, ptr %0, i64 112
  %11 = load i32, ptr %10, align 8, !tbaa !38
  %12 = add nsw i32 %11, 15
  %13 = and i32 %12, -16
  %14 = getelementptr inbounds nuw i8, ptr %0, i64 120
  store i32 %13, ptr %14, align 8, !tbaa !39
  %15 = getelementptr inbounds nuw i8, ptr %0, i64 116
  %16 = load i32, ptr %15, align 4, !tbaa !40
  %17 = add nsw i32 %16, 15
  %18 = and i32 %17, -16
  %19 = getelementptr inbounds nuw i8, ptr %0, i64 124
  store i32 %18, ptr %19, align 4, !tbaa !41
  %20 = getelementptr inbounds nuw i8, ptr %0, i64 656
  %21 = load i32, ptr %20, align 8, !tbaa !42
  %22 = sext i32 %21 to i64
  %23 = tail call noalias ptr @av_calloc(i64 noundef %22, i64 noundef 2112) #4
  %24 = getelementptr inbounds nuw i8, ptr %3, i64 8
  store ptr %23, ptr %24, align 8, !tbaa !43
  %.not = icmp eq ptr %23, null
  %. = select i1 %.not, i32 -12, i32 0
  ret i32 %.
}